(lp0
S'poi'
p1
aS'salary'
p2
aS'deferral_payments'
p3
aS'total_payments'
p4
aS'long_term_incentive'
p5
aS'loan_advances'
p6
aS'bonus'
p7
aS'restricted_stock'
p8
aS'restricted_stock_deferred'
p9
aS'total_stock_value'
p10
aS'exercised_stock_options'
p11
aS'deferred_income'
p12
aS'expenses'
p13
aS'director_fees'
p14
aS'fraction_from_poi'
p15
aS'fraction_to_poi'
p16
a.